; Function Attrs: mustprogress nofree norecurse nosync nounwind willreturn memory(argmem: write) uwtable
define hidden void @_ZN6google8protobuf8internal12ExtensionSetC2EPNS0_5ArenaE(ptr noundef nonnull writeonly align 8 captures(none) dereferenceable(24) initializes((0, 12), (16, 24)) %0, ptr noundef %1) unnamed_addr #9 align 2 {
  store ptr %1, ptr %0, align 8, !tbaa !61
  %3 = getelementptr inbounds nuw i8, ptr %0, i64 8
  store i16 0, ptr %3, align 8, !tbaa !65
  %4 = getelementptr inbounds nuw i8, ptr %0, i64 10
  store i16 0, ptr %4, align 2, !tbaa !66
  %5 = getelementptr inbounds nuw i8, ptr %0, i64 16
  store ptr null, ptr %5, align 8, !tbaa !38
  ret void
}